target datalayout = "e-m:e-p270:32:32-p271:32:32-p272:64:64-i64:64-i128:128-f80:128-n8:16:32:64-S128"
target triple = "x86_64-pc-linux-gnu"

%class.OffMeshConnectionTool = type <{ %struct.SampleTool, ptr, [3 x float], i8, i8, i8, i8 }>
%struct.SampleTool = type { ptr }

@.str.2 = private unnamed_addr constant [6 x i8] c"Start\00", align 1
@.str.3 = private unnamed_addr constant [103 x i8] c"LMB: Create new connection.  SHIFT+LMB: Delete existing connection, click close to start or end point.\00", align 1
@.str.4 = private unnamed_addr constant [42 x i8] c"LMB: Set connection end point and finish.\00", align 1

; Function Attrs: mustprogress nounwind uwtable
define linkonce_odr dso_local noundef i32 @_Z9imguiRGBAhhhh(i8 noundef zeroext %0, i8 noundef zeroext %1, i8 noundef zeroext %2, i8 noundef zeroext %3) #0 comdat {
  %5 = alloca i8, align 1
  %6 = alloca i8, align 1
  %7 = alloca i8, align 1
  %8 = alloca i8, align 1
  store i8 %0, ptr %5, align 1
  store i8 %1, ptr %6, align 1
  store i8 %2, ptr %7, align 1
  store i8 %3, ptr %8, align 1
  %9 = load i8, ptr %5, align 1
  %10 = zext i8 %9 to i32
  %11 = load i8, ptr %6, align 1
  %12 = zext i8 %11 to i32
  %13 = shl i32 %12, 8
  %14 = or i32 %10, %13
  %15 = load i8, ptr %7, align 1
  %16 = zext i8 %15 to i32
  %17 = shl i32 %16, 16
  %18 = or i32 %14, %17
  %19 = load i8, ptr %8, align 1
  %20 = zext i8 %19 to i32
  %21 = shl i32 %20, 24
  %22 = or i32 %18, %21
  ret i32 %22
}

; Function Attrs: mustprogress uwtable
define dso_local void @_ZN21OffMeshConnectionTool19handleRenderOverlayEPdS0_Pi(ptr noundef nonnull align 8 dereferenceable(31) %0, ptr noundef %1, ptr noundef %2, ptr noundef %3) unnamed_addr #4 align 2 {
  %5 = alloca ptr, align 8
  %6 = alloca ptr, align 8
  %7 = alloca ptr, align 8
  %8 = alloca ptr, align 8
  %9 = alloca double, align 8
  %10 = alloca double, align 8
  %11 = alloca double, align 8
  %12 = alloca i32, align 4
  store ptr %0, ptr %5, align 8
  store ptr %1, ptr %6, align 8
  store ptr %2, ptr %7, align 8
  store ptr %3, ptr %8, align 8
  %13 = load ptr, ptr %5, align 8
  %14 = getelementptr inbounds %class.OffMeshConnectionTool, ptr %13, i32 0, i32 3
  %15 = load i8, ptr %14, align 4
  %16 = trunc i8 %15 to i1
  br i1 %16, label %17, label %42

17:                                               ; preds = %4
  %18 = getelementptr inbounds %class.OffMeshConnectionTool, ptr %13, i32 0, i32 2
  %19 = getelementptr inbounds [3 x float], ptr %18, i64 0, i64 0
  %20 = load float, ptr %19, align 8
  %21 = fpext float %20 to double
  %22 = getelementptr inbounds %class.OffMeshConnectionTool, ptr %13, i32 0, i32 2
  %23 = getelementptr inbounds [3 x float], ptr %22, i64 0, i64 1
  %24 = load float, ptr %23, align 4
  %25 = fpext float %24 to double
  %26 = getelementptr inbounds %class.OffMeshConnectionTool, ptr %13, i32 0, i32 2
  %27 = getelementptr inbounds [3 x float], ptr %26, i64 0, i64 2
  %28 = load float, ptr %27, align 8
  %29 = fpext float %28 to double
  %30 = load ptr, ptr %7, align 8
  %31 = load ptr, ptr %6, align 8
  %32 = load ptr, ptr %8, align 8
  %33 = call i32 @gluProject(double noundef %21, double noundef %25, double noundef %29, ptr noundef %30, ptr noundef %31, ptr noundef %32, ptr noundef %9, ptr noundef %10, ptr noundef %11)
  %34 = icmp ne i32 %33, 0
  br i1 %34, label %35, label %42

35:                                               ; preds = %17
  %36 = load double, ptr %9, align 8
  %37 = fptosi double %36 to i32
  %38 = load double, ptr %10, align 8
  %39 = fsub double %38, 2.500000e+01
  %40 = fptosi double %39 to i32
  %41 = call noundef i32 @_Z9imguiRGBAhhhh(i8 noundef zeroext 0, i8 noundef zeroext 0, i8 noundef zeroext 0, i8 noundef zeroext -36)
  call void @_Z13imguiDrawTextiiiPKcj(i32 noundef %37, i32 noundef %40, i32 noundef 1, ptr noundef @.str.2, i32 noundef %41)
  br label %42

42:                                               ; preds = %35, %17, %4
  %43 = load ptr, ptr %8, align 8
  %44 = getelementptr inbounds i32, ptr %43, i64 3
  %45 = load i32, ptr %44, align 4
  store i32 %45, ptr %12, align 4
  %46 = getelementptr inbounds %class.OffMeshConnectionTool, ptr %13, i32 0, i32 3
  %47 = load i8, ptr %46, align 4
  %48 = trunc i8 %47 to i1
  br i1 %48, label %53, label %49

49:                                               ; preds = %42
  %50 = load i32, ptr %12, align 4
  %51 = sub nsw i32 %50, 40
  %52 = call noundef i32 @_Z9imguiRGBAhhhh(i8 noundef zeroext -1, i8 noundef zeroext -1, i8 noundef zeroext -1, i8 noundef zeroext -64)
  call void @_Z13imguiDrawTextiiiPKcj(i32 noundef 280, i32 noundef %51, i32 noundef 0, ptr noundef @.str.3, i32 noundef %52)
  br label %57

53:                                               ; preds = %42
  %54 = load i32, ptr %12, align 4
  %55 = sub nsw i32 %54, 40
  %56 = call noundef i32 @_Z9imguiRGBAhhhh(i8 noundef zeroext -1, i8 noundef zeroext -1, i8 noundef zeroext -1, i8 noundef zeroext -64)
  call void @_Z13imguiDrawTextiiiPKcj(i32 noundef 280, i32 noundef %55, i32 noundef 0, ptr noundef @.str.4, i32 noundef %56)
  br label %57

57:                                               ; preds = %53, %49
  ret void
}