; Function Attrs: mustprogress uwtable
define dso_local void @_ZN21OffMeshConnectionTool19handleRenderOverlayEPdS0_Pi(ptr nocapture noundef nonnull readonly align 8 dereferenceable(31) %0, ptr noundef %1, ptr noundef %2, ptr noundef %3) unnamed_addr #5 align 2 {
  %5 = alloca double, align 8
  %6 = alloca double, align 8
  %7 = alloca double, align 8
  %8 = getelementptr inbounds i8, ptr %0, i64 28
  %9 = load i8, ptr %8, align 4
  %10 = and i8 %9, 1
  %.not = icmp eq i8 %10, 0
  br i1 %.not, label %28, label %11

11:                                               ; preds = %4
  %12 = getelementptr inbounds i8, ptr %0, i64 16
  %13 = load float, ptr %12, align 8
  %14 = fpext float %13 to double
  %15 = getelementptr inbounds i8, ptr %0, i64 20
  %16 = load float, ptr %15, align 4
  %17 = fpext float %16 to double
  %18 = getelementptr inbounds i8, ptr %0, i64 24
  %19 = load float, ptr %18, align 8
  %20 = fpext float %19 to double
  %21 = call i32 @gluProject(double noundef %14, double noundef %17, double noundef %20, ptr noundef %2, ptr noundef %1, ptr noundef %3, ptr noundef nonnull %5, ptr noundef nonnull %6, ptr noundef nonnull %7)
  %.not6 = icmp eq i32 %21, 0
  br i1 %.not6, label %28, label %22

22:                                               ; preds = %11
  %23 = load double, ptr %5, align 8
  %24 = fptosi double %23 to i32
  %25 = load double, ptr %6, align 8
  %26 = fadd double %25, -2.500000e+01
  %27 = fptosi double %26 to i32
  call void @_Z13imguiDrawTextiiiPKcj(i32 noundef %24, i32 noundef %27, i32 noundef 1, ptr noundef nonnull @.str.2, i32 noundef -603979776)
  br label %28

28:                                               ; preds = %22, %11, %4
  %29 = getelementptr inbounds i8, ptr %3, i64 12
  %30 = load i32, ptr %29, align 4
  %31 = load i8, ptr %8, align 4
  %32 = and i8 %31, 1
  %.not7 = icmp eq i8 %32, 0
  %33 = add nsw i32 %30, -40
  %.str.3..str.4 = select i1 %.not7, ptr @.str.3, ptr @.str.4
  call void @_Z13imguiDrawTextiiiPKcj(i32 noundef 280, i32 noundef %33, i32 noundef 0, ptr noundef nonnull %.str.3..str.4, i32 noundef -1056964609)
  ret void
}